ccopy_reg
_reconstructor
p0
(ctouchlineid.items
TouchlineidItem
p1
c__builtin__
object
p2
Ntp3
Rp4
(dp5
S'_values'
p6
(dp7
S'season'
p8
S'2009 - 2010'
p9
sS'CTID'
p10
S'11'
p11
sS'CPID'
p12
S'4'
p13
sS'MAID'
p14
(lp15
(g11
g13
S'413972'
p16
tp17
a(g11
g13
S'413977'
p18
tp19
a(g11
g13
S'413979'
p20
tp21
a(g11
g13
S'413974'
p22
tp23
a(g11
g13
S'413978'
p24
tp25
a(g11
g13
S'413980'
p26
tp27
a(g11
g13
S'413973'
p28
tp29
a(g11
g13
S'413976'
p30
tp31
a(g11
g13
S'413971'
p32
tp33
a(g11
g13
S'413975'
p34
tp35
a(g11
g13
S'413962'
p36
tp37
a(g11
g13
S'413970'
p38
tp39
a(g11
g13
S'413964'
p40
tp41
a(g11
g13
S'413968'
p42
tp43
a(g11
g13
S'413963'
p44
tp45
a(g11
g13
S'413969'
p46
tp47
a(g11
g13
S'413961'
p48
tp49
a(g11
g13
S'413967'
p50
tp51
a(g11
g13
S'413965'
p52
tp53
a(g11
g13
S'413966'
p54
tp55
a(g11
g13
S'413875'
p56
tp57
a(g11
g13
S'413939'
p58
tp59
a(g11
g13
S'413931'
p60
tp61
a(g11
g13
S'413937'
p62
tp63
a(g11
g13
S'413933'
p64
tp65
a(g11
g13
S'413925'
p66
tp67
a(g11
g13
S'413922'
p68
tp69
a(g11
g13
S'413926'
p70
tp71
a(g11
g13
S'413929'
p72
tp73
a(g11
g13
S'413921'
p74
tp75
a(g11
g13
S'413927'
p76
tp77
a(g11
g13
S'413924'
p78
tp79
a(g11
g13
S'413923'
p80
tp81
a(g11
g13
S'413928'
p82
tp83
a(g11
g13
S'413930'
p84
tp85
a(g11
g13
S'413882'
p86
tp87
a(g11
g13
S'413883'
p88
tp89
a(g11
g13
S'413620'
p90
tp91
a(g11
g13
S'413887'
p92
tp93
a(g11
g13
S'413809'
p94
tp95
a(g11
g13
S'413810'
p96
tp97
a(g11
g13
S'413896'
p98
tp99
a(g11
g13
S'413897'
p100
tp101
a(g11
g13
S'413899'
p102
tp103
a(g11
g13
S'413891'
p104
tp105
a(g11
g13
S'413895'
p106
tp107
a(g11
g13
S'413898'
p108
tp109
a(g11
g13
S'413900'
p110
tp111
a(g11
g13
S'413894'
p112
tp113
a(g11
g13
S'413892'
p114
tp115
a(g11
g13
S'413893'
p116
tp117
a(g11
g13
S'413880'
p118
tp119
a(g11
g13
S'413876'
p120
tp121
a(g11
g13
S'413879'
p122
tp123
a(g11
g13
S'413872'
p124
tp125
a(g11
g13
S'413873'
p126
tp127
a(g11
g13
S'413871'
p128
tp129
a(g11
g13
S'413878'
p130
tp131
a(g11
g13
S'413874'
p132
tp133
a(g11
g13
S'413869'
p134
tp135
a(g11
g13
S'413862'
p136
tp137
a(g11
g13
S'413863'
p138
tp139
a(g11
g13
S'413865'
p140
tp141
a(g11
g13
S'413866'
p142
tp143
a(g11
g13
S'413864'
p144
tp145
a(g11
g13
S'413870'
p146
tp147
a(g11
g13
S'413861'
p148
tp149
a(g11
g13
S'413867'
p150
tp151
a(g11
g13
S'413868'
p152
tp153
a(g11
g13
S'413851'
p154
tp155
a(g11
g13
S'413859'
p156
tp157
a(g11
g13
S'413854'
p158
tp159
a(g11
g13
S'413857'
p160
tp161
a(g11
g13
S'413856'
p162
tp163
a(g11
g13
S'413858'
p164
tp165
a(g11
g13
S'413855'
p166
tp167
a(g11
g13
S'413853'
p168
tp169
a(g11
g13
S'413860'
p170
tp171
a(g11
g13
S'413852'
p172
tp173
a(g11
g13
S'413804'
p174
tp175
a(g11
g13
S'413805'
p176
tp177
a(g11
g13
S'413838'
p178
tp179
a(g11
g13
S'413831'
p180
tp181
a(g11
g13
S'413837'
p182
tp183
a(g11
g13
S'413835'
p184
tp185
a(g11
g13
S'413840'
p186
tp187
a(g11
g13
S'413833'
p188
tp189
a(g11
g13
S'413839'
p190
tp191
a(g11
g13
S'413834'
p192
tp193
a(g11
g13
S'413836'
p194
tp195
a(g11
g13
S'413832'
p196
tp197
a(g11
g13
S'413822'
p198
tp199
a(g11
g13
S'413811'
p200
tp201
a(g11
g13
S'413813'
p202
tp203
a(g11
g13
S'413812'
p204
tp205
a(g11
g13
S'413819'
p206
tp207
a(g11
g13
S'413820'
p208
tp209
a(g11
g13
S'413815'
p210
tp211
a(g11
g13
S'413818'
p212
tp213
a(g11
g13
S'413816'
p214
tp215
a(g11
g13
S'413814'
p216
tp217
a(g11
g13
S'413802'
p218
tp219
a(g11
g13
S'413801'
p220
tp221
a(g11
g13
S'413796'
p222
tp223
a(g11
g13
S'413797'
p224
tp225
a(g11
g13
S'413791'
p226
tp227
a(g11
g13
S'413793'
p228
tp229
a(g11
g13
S'413794'
p230
tp231
a(g11
g13
S'413800'
p232
tp233
a(g11
g13
S'413792'
p234
tp235
a(g11
g13
S'413798'
p236
tp237
a(g11
g13
S'413795'
p238
tp239
a(g11
g13
S'413799'
p240
tp241
a(g11
g13
S'413785'
p242
tp243
a(g11
g13
S'413781'
p244
tp245
a(g11
g13
S'413790'
p246
tp247
a(g11
g13
S'413782'
p248
tp249
a(g11
g13
S'413788'
p250
tp251
a(g11
g13
S'413784'
p252
tp253
a(g11
g13
S'413787'
p254
tp255
a(g11
g13
S'413783'
p256
tp257
a(g11
g13
S'413786'
p258
tp259
a(g11
g13
S'413789'
p260
tp261
a(g11
g13
S'413769'
p262
tp263
a(g11
g13
S'413770'
p264
tp265
a(g11
g13
S'413768'
p266
tp267
a(g11
g13
S'413763'
p268
tp269
a(g11
g13
S'413767'
p270
tp271
a(g11
g13
S'413761'
p272
tp273
a(g11
g13
S'413762'
p274
tp275
a(g11
g13
S'413765'
p276
tp277
a(g11
g13
S'413744'
p278
tp279
a(g11
g13
S'413745'
p280
tp281
a(g11
g13
S'413749'
p282
tp283
a(g11
g13
S'413747'
p284
tp285
a(g11
g13
S'413750'
p286
tp287
a(g11
g13
S'413748'
p288
tp289
a(g11
g13
S'413741'
p290
tp291
a(g11
g13
S'413743'
p292
tp293
a(g11
g13
S'413746'
p294
tp295
a(g11
g13
S'413742'
p296
tp297
a(g11
g13
S'413764'
p298
tp299
a(g11
g13
S'413614'
p300
tp301
a(g11
g13
S'413715'
p302
tp303
a(g11
g13
S'413714'
p304
tp305
a(g11
g13
S'413713'
p306
tp307
a(g11
g13
S'413718'
p308
tp309
a(g11
g13
S'413719'
p310
tp311
a(g11
g13
S'413712'
p312
tp313
a(g11
g13
S'413720'
p314
tp315
a(g11
g13
S'413711'
p316
tp317
a(g11
g13
S'413717'
p318
tp319
a(g11
g13
S'413716'
p320
tp321
a(g11
g13
S'413702'
p322
tp323
a(g11
g13
S'413706'
p324
tp325
a(g11
g13
S'413703'
p326
tp327
a(g11
g13
S'413705'
p328
tp329
a(g11
g13
S'413707'
p330
tp331
a(g11
g13
S'413710'
p332
tp333
a(g11
g13
S'413701'
p334
tp335
a(g11
g13
S'413704'
p336
tp337
a(g11
g13
S'413709'
p338
tp339
a(g11
g13
S'413708'
p340
tp341
a(g11
g13
S'413685'
p342
tp343
a(g11
g13
S'413683'
p344
tp345
a(g11
g13
S'413690'
p346
tp347
a(g11
g13
S'413689'
p348
tp349
a(g11
g13
S'413682'
p350
tp351
a(g11
g13
S'413686'
p352
tp353
a(g11
g13
S'413681'
p354
tp355
a(g11
g13
S'413688'
p356
tp357
a(g11
g13
S'413687'
p358
tp359
a(g11
g13
S'413684'
p360
tp361
a(g11
g13
S'413665'
p362
tp363
a(g11
g13
S'413668'
p364
tp365
a(g11
g13
S'413664'
p366
tp367
a(g11
g13
S'413667'
p368
tp369
a(g11
g13
S'413661'
p370
tp371
a(g11
g13
S'413669'
p372
tp373
a(g11
g13
S'413670'
p374
tp375
a(g11
g13
S'413662'
p376
tp377
a(g11
g13
S'413663'
p378
tp379
a(g11
g13
S'413666'
p380
tp381
a(g11
g13
S'413643'
p382
tp383
a(g11
g13
S'413641'
p384
tp385
a(g11
g13
S'413645'
p386
tp387
a(g11
g13
S'413647'
p388
tp389
a(g11
g13
S'413644'
p390
tp391
a(g11
g13
S'413646'
p392
tp393
a(g11
g13
S'413649'
p394
tp395
a(g11
g13
S'413650'
p396
tp397
a(g11
g13
S'413642'
p398
tp399
a(g11
g13
S'413648'
p400
tp401
a(g11
g13
S'413626'
p402
tp403
a(g11
g13
S'413624'
p404
tp405
a(g11
g13
S'413623'
p406
tp407
a(g11
g13
S'413629'
p408
tp409
a(g11
g13
S'413622'
p410
tp411
a(g11
g13
S'413625'
p412
tp413
a(g11
g13
S'413630'
p414
tp415
a(g11
g13
S'413628'
p416
tp417
a(g11
g13
S'413627'
p418
tp419
a(g11
g13
S'413621'
p420
tp421
a(g11
g13
S'413609'
p422
tp423
a(g11
g13
S'413606'
p424
tp425
a(g11
g13
S'413603'
p426
tp427
a(g11
g13
S'413608'
p428
tp429
a(g11
g13
S'413610'
p430
tp431
a(g11
g13
S'413602'
p432
tp433
a(g11
g13
S'413605'
p434
tp435
a(g11
g13
S'413604'
p436
tp437
a(g11
g13
S'413607'
p438
tp439
a(g11
g13
S'413601'
p440
tp441
a(g11
g13
S'413885'
p442
tp443
a(g11
g13
S'413886'
p444
tp445
a(g11
g13
S'413956'
p446
tp447
a(g11
g13
S'413954'
p448
tp449
a(g11
g13
S'413952'
p450
tp451
a(g11
g13
S'413955'
p452
tp453
a(g11
g13
S'413958'
p454
tp455
a(g11
g13
S'413957'
p456
tp457
a(g11
g13
S'413951'
p458
tp459
a(g11
g13
S'413960'
p460
tp461
a(g11
g13
S'413953'
p462
tp463
a(g11
g13
S'413959'
p464
tp465
a(g11
g13
S'413944'
p466
tp467
a(g11
g13
S'413946'
p468
tp469
a(g11
g13
S'413950'
p470
tp471
a(g11
g13
S'413949'
p472
tp473
a(g11
g13
S'413942'
p474
tp475
a(g11
g13
S'413945'
p476
tp477
a(g11
g13
S'413948'
p478
tp479
a(g11
g13
S'413947'
p480
tp481
a(g11
g13
S'413943'
p482
tp483
a(g11
g13
S'413941'
p484
tp485
a(g11
g13
S'413940'
p486
tp487
a(g11
g13
S'413936'
p488
tp489
a(g11
g13
S'413932'
p490
tp491
a(g11
g13
S'413935'
p492
tp493
a(g11
g13
S'413938'
p494
tp495
a(g11
g13
S'413934'
p496
tp497
a(g11
g13
S'413917'
p498
tp499
a(g11
g13
S'413916'
p500
tp501
a(g11
g13
S'413913'
p502
tp503
a(g11
g13
S'413911'
p504
tp505
a(g11
g13
S'413914'
p506
tp507
a(g11
g13
S'413920'
p508
tp509
a(g11
g13
S'413912'
p510
tp511
a(g11
g13
S'413919'
p512
tp513
a(g11
g13
S'413918'
p514
tp515
a(g11
g13
S'413915'
p516
tp517
a(g11
g13
S'413903'
p518
tp519
a(g11
g13
S'413905'
p520
tp521
a(g11
g13
S'413906'
p522
tp523
a(g11
g13
S'413909'
p524
tp525
a(g11
g13
S'413910'
p526
tp527
a(g11
g13
S'413904'
p528
tp529
a(g11
g13
S'413908'
p530
tp531
a(g11
g13
S'413901'
p532
tp533
a(g11
g13
S'413907'
p534
tp535
a(g11
g13
S'413902'
p536
tp537
a(g11
g13
S'413803'
p538
tp539
a(g11
g13
S'413808'
p540
tp541
a(g11
g13
S'413817'
p542
tp543
a(g11
g13
S'413889'
p544
tp545
a(g11
g13
S'413884'
p546
tp547
a(g11
g13
S'413888'
p548
tp549
a(g11
g13
S'413881'
p550
tp551
a(g11
g13
S'413890'
p552
tp553
a(g11
g13
S'413877'
p554
tp555
a(g11
g13
S'413779'
p556
tp557
a(g11
g13
S'413824'
p558
tp559
a(g11
g13
S'413844'
p560
tp561
a(g11
g13
S'413841'
p562
tp563
a(g11
g13
S'413847'
p564
tp565
a(g11
g13
S'413842'
p566
tp567
a(g11
g13
S'413849'
p568
tp569
a(g11
g13
S'413850'
p570
tp571
a(g11
g13
S'413848'
p572
tp573
a(g11
g13
S'413846'
p574
tp575
a(g11
g13
S'413845'
p576
tp577
a(g11
g13
S'413843'
p578
tp579
a(g11
g13
S'413830'
p580
tp581
a(g11
g13
S'413829'
p582
tp583
a(g11
g13
S'413827'
p584
tp585
a(g11
g13
S'413828'
p586
tp587
a(g11
g13
S'413825'
p588
tp589
a(g11
g13
S'413826'
p590
tp591
a(g11
g13
S'413821'
p592
tp593
a(g11
g13
S'413823'
p594
tp595
a(g11
g13
S'413611'
p596
tp597
a(g11
g13
S'413806'
p598
tp599
a(g11
g13
S'413807'
p600
tp601
a(g11
g13
S'413766'
p602
tp603
a(g11
g13
S'413780'
p604
tp605
a(g11
g13
S'413774'
p606
tp607
a(g11
g13
S'413778'
p608
tp609
a(g11
g13
S'413777'
p610
tp611
a(g11
g13
S'413776'
p612
tp613
a(g11
g13
S'413772'
p614
tp615
a(g11
g13
S'413775'
p616
tp617
a(g11
g13
S'413773'
p618
tp619
a(g11
g13
S'413771'
p620
tp621
a(g11
g13
S'413756'
p622
tp623
a(g11
g13
S'413757'
p624
tp625
a(g11
g13
S'413755'
p626
tp627
a(g11
g13
S'413752'
p628
tp629
a(g11
g13
S'413754'
p630
tp631
a(g11
g13
S'413751'
p632
tp633
a(g11
g13
S'413760'
p634
tp635
a(g11
g13
S'413753'
p636
tp637
a(g11
g13
S'413759'
p638
tp639
a(g11
g13
S'413758'
p640
tp641
a(g11
g13
S'413731'
p642
tp643
a(g11
g13
S'413734'
p644
tp645
a(g11
g13
S'413740'
p646
tp647
a(g11
g13
S'413739'
p648
tp649
a(g11
g13
S'413735'
p650
tp651
a(g11
g13
S'413738'
p652
tp653
a(g11
g13
S'413733'
p654
tp655
a(g11
g13
S'413732'
p656
tp657
a(g11
g13
S'413737'
p658
tp659
a(g11
g13
S'413736'
p660
tp661
a(g11
g13
S'413722'
p662
tp663
a(g11
g13
S'413728'
p664
tp665
a(g11
g13
S'413730'
p666
tp667
a(g11
g13
S'413724'
p668
tp669
a(g11
g13
S'413721'
p670
tp671
a(g11
g13
S'413723'
p672
tp673
a(g11
g13
S'413729'
p674
tp675
a(g11
g13
S'413727'
p676
tp677
a(g11
g13
S'413726'
p678
tp679
a(g11
g13
S'413725'
p680
tp681
a(g11
g13
S'413617'
p682
tp683
a(g11
g13
S'413697'
p684
tp685
a(g11
g13
S'413699'
p686
tp687
a(g11
g13
S'413692'
p688
tp689
a(g11
g13
S'413696'
p690
tp691
a(g11
g13
S'413700'
p692
tp693
a(g11
g13
S'413694'
p694
tp695
a(g11
g13
S'413698'
p696
tp697
a(g11
g13
S'413691'
p698
tp699
a(g11
g13
S'413695'
p700
tp701
a(g11
g13
S'413693'
p702
tp703
a(g11
g13
S'413672'
p704
tp705
a(g11
g13
S'413675'
p706
tp707
a(g11
g13
S'413671'
p708
tp709
a(g11
g13
S'413676'
p710
tp711
a(g11
g13
S'413679'
p712
tp713
a(g11
g13
S'413677'
p714
tp715
a(g11
g13
S'413680'
p716
tp717
a(g11
g13
S'413673'
p718
tp719
a(g11
g13
S'413678'
p720
tp721
a(g11
g13
S'413674'
p722
tp723
a(g11
g13
S'413658'
p724
tp725
a(g11
g13
S'413656'
p726
tp727
a(g11
g13
S'413655'
p728
tp729
a(g11
g13
S'413660'
p730
tp731
a(g11
g13
S'413651'
p732
tp733
a(g11
g13
S'413652'
p734
tp735
a(g11
g13
S'413653'
p736
tp737
a(g11
g13
S'413657'
p738
tp739
a(g11
g13
S'413654'
p740
tp741
a(g11
g13
S'413659'
p742
tp743
a(g11
g13
S'413631'
p744
tp745
a(g11
g13
S'413635'
p746
tp747
a(g11
g13
S'413637'
p748
tp749
a(g11
g13
S'413633'
p750
tp751
a(g11
g13
S'413636'
p752
tp753
a(g11
g13
S'413632'
p754
tp755
a(g11
g13
S'413634'
p756
tp757
a(g11
g13
S'413638'
p758
tp759
a(g11
g13
S'413639'
p760
tp761
a(g11
g13
S'413640'
p762
tp763
a(g11
g13
S'413612'
p764
tp765
a(g11
g13
S'413619'
p766
tp767
a(g11
g13
S'413615'
p768
tp769
a(g11
g13
S'413613'
p770
tp771
a(g11
g13
S'413616'
p772
tp773
a(g11
g13
S'413618'
p774
tp775
assb.